Certificate:
    Data:
        Version: 3 (0x2)
        Serial Number:
            4e:6a:f1:77:e0:c6:e8:b3:31:8c:b1:92:8a:df:de:62
    Signature Algorithm: sha256WithRSAEncryption
        Issuer: CN=Easy-RSA CA
        Validity
            Not Before: Jun 27 11:51:22 2019 GMT
            Not After : Jun 24 11:51:22 2029 GMT
        Subject: CN=vpnserver
        Subject Public Key Info:
            Public Key Algorithm: rsaEncryption
                Public-Key: (2048 bit)
                Modulus:
                    00:b4:85:2b:7b:9d:b7:3e:ee:b6:be:8d:0a:a0:b7:
                    fc:ff:0b:db:87:36:eb:50:d6:97:b8:c2:1a:54:b6:
                    72:a8:90:d0:6b:ff:45:08:44:78:a7:33:54:c3:02:
                    06:45:a5:58:24:a7:f9:73:07:d3:dc:6b:b8:8e:de:
                    ff:94:9c:64:82:2e:d2:f6:ef:8d:15:25:b9:91:33:
                    c2:76:3e:69:5b:43:e5:14:99:10:23:5d:1f:d0:d6:
                    b7:ed:be:76:60:08:fd:5f:e1:17:b3:a7:11:da:f9:
                    a1:a2:bf:6f:fc:cb:0b:c9:d1:a6:78:03:3e:26:91:
                    41:6a:69:99:28:e0:2b:58:a3:c7:07:f8:85:1f:10:
                    b4:4b:76:b1:91:94:74:22:c0:eb:cc:32:3d:c1:cc:
                    2c:68:35:fc:90:d9:f9:ff:52:a8:fb:db:21:d6:68:
                    07:b6:a2:c4:d5:a4:80:d2:b7:0f:79:d3:cc:51:94:
                    12:31:07:09:1b:a2:c2:4b:a7:69:88:f3:80:49:da:
                    b6:fb:12:27:55:88:f5:13:9a:66:ab:e3:10:7e:c6:
                    1c:22:51:ab:f2:89:ac:be:8b:5b:f9:c3:41:5c:16:
                    09:18:27:1d:03:67:2a:82:b4:f1:40:49:b1:1e:05:
                    38:05:c5:2c:7c:60:5b:d7:85:c3:ed:7d:69:b0:bd:
                    14:b5
                Exponent: 65537 (0x10001)
        X509v3 extensions:
            X509v3 Basic Constraints: 
                CA:FALSE
            X509v3 Subject Key Identifier: 
                B0:7A:21:79:BB:CD:C6:3E:A1:AE:79:3A:46:D2:88:75:2D:D8:E2:E5
            X509v3 Authority Key Identifier: 
                keyid:10:AD:62:D3:07:B0:50:66:8E:08:D5:11:54:E5:8F:82:4B:37:7C:53
                DirName:/CN=Easy-RSA CA
                serial:E0:6C:76:D3:24:9E:A1:F2

            X509v3 Extended Key Usage: 
                TLS Web Server Authentication
            X509v3 Key Usage: 
                Digital Signature, Key Encipherment
            X509v3 Subject Alternative Name: 
                DNS:vpnserver
    Signature Algorithm: sha256WithRSAEncryption
         a6:67:67:70:9e:c5:6f:c9:95:f4:87:93:70:82:ad:e9:63:c9:
         aa:2a:ac:6c:72:b4:a2:38:32:01:37:db:b8:8a:fa:3f:9e:f4:
         ce:86:88:16:59:79:68:f5:3f:ff:3d:12:ed:41:04:ae:d8:c4:
         15:a6:ed:e9:e0:70:e6:69:7b:ee:72:1e:af:08:aa:c1:0b:15:
         64:21:79:01:62:cf:aa:65:07:6f:49:c0:b8:24:8d:36:bc:e3:
         ff:77:29:e3:7d:ed:cc:42:d4:88:cd:0d:1d:f3:7e:28:01:44:
         0a:f0:50:92:f9:86:53:96:73:7c:84:54:06:93:31:11:41:82:
         97:9a:30:be:95:4d:a5:9b:04:8d:0d:03:45:ff:b4:43:43:69:
         6a:67:7b:eb:a3:5d:e3:7d:39:db:ba:36:e6:dc:f2:91:98:4d:
         14:c8:b5:2b:f3:16:62:41:21:29:b2:a9:88:d1:f8:03:cb:fa:
         57:fd:68:47:2c:14:32:be:2a:c1:e4:d5:19:d3:40:77:60:fb:
         87:fe:4c:ae:a4:81:5d:2c:f0:d4:b0:11:14:08:1a:2c:68:11:
         b1:59:21:f6:ee:b3:ea:87:bd:c8:9c:47:f7:2d:b5:da:d6:d2:
         53:04:b1:08:77:09:7c:44:66:9c:54:d5:12:f3:52:5b:f7:56:
         9c:17:d5:dd
-----BEGIN CERTIFICATE-----
MIIDYjCCAkqgAwIBAgIQTmrxd+DG6LMxjLGSit/eYjANBgkqhkiG9w0BAQsFADAW
MRQwEgYDVQQDDAtFYXN5LVJTQSBDQTAeFw0xOTA2MjcxMTUxMjJaFw0yOTA2MjQx
MTUxMjJaMBQxEjAQBgNVBAMMCXZwbnNlcnZlcjCCASIwDQYJKoZIhvcNAQEBBQAD
ggEPADCCAQoCggEBALSFK3udtz7utr6NCqC3/P8L24c261DWl7jCGlS2cqiQ0Gv/
RQhEeKczVMMCBkWlWCSn+XMH09xruI7e/5ScZIIu0vbvjRUluZEzwnY+aVtD5RSZ
ECNdH9DWt+2+dmAI/V/hF7OnEdr5oaK/b/zLC8nRpngDPiaRQWppmSjgK1ijxwf4
hR8QtEt2sZGUdCLA68wyPcHMLGg1/JDZ+f9SqPvbIdZoB7aixNWkgNK3D3nTzFGU
EjEHCRuiwkunaYjzgEnatvsSJ1WI9ROaZqvjEH7GHCJRq/KJrL6LW/nDQVwWCRgn
HQNnKoK08UBJsR4FOAXFLHxgW9eFw+19abC9FLUCAwEAAaOBrTCBqjAJBgNVHRME
AjAAMB0GA1UdDgQWBBSweiF5u83GPqGueTpG0oh1Ldji5TBGBgNVHSMEPzA9gBQQ
rWLTB7BQZo4I1RFU5Y+CSzd8U6EapBgwFjEUMBIGA1UEAwwLRWFzeS1SU0EgQ0GC
CQDgbHbTJJ6h8jATBgNVHSUEDDAKBggrBgEFBQcDATALBgNVHQ8EBAMCBaAwFAYD
VR0RBA0wC4IJdnBuc2VydmVyMA0GCSqGSIb3DQEBCwUAA4IBAQCmZ2dwnsVvyZX0
h5Nwgq3pY8mqKqxscrSiODIBN9u4ivo/nvTOhogWWXlo9T//PRLtQQSu2MQVpu3p
4HDmaXvuch6vCKrBCxVkIXkBYs+qZQdvScC4JI02vOP/dynjfe3MQtSIzQ0d834o
AUQK8FCS+YZTlnN8hFQGkzERQYKXmjC+lU2lmwSNDQNF/7RDQ2lqZ3vro13jfTnb
ujbm3PKRmE0UyLUr8xZiQSEpsqmI0fgDy/pX/WhHLBQyvirB5NUZ00B3YPuH/kyu
pIFdLPDUsBEUCBosaBGxWSH27rPqh73InEf3LbXa1tJTBLEIdwl8RGacVNUS81Jb
91acF9Xd
-----END CERTIFICATE-----
